; ModuleID = 'source-C-CXX/12/593.c'
source_filename = "source-C-CXX/12/593.c"
target datalayout = "e-m:e-p270:32:32-p271:32:32-p272:64:64-i64:64-f80:128-n8:16:32:64-S128"
target triple = "x86_64-pc-linux-gnu"

@.str = private unnamed_addr constant [3 x i8] c"%d\00", align 1
@.str.1 = private unnamed_addr constant [4 x i8] c"%d \00", align 1

; Function Attrs: nofree nounwind sspstrong uwtable
define dso_local void @main() local_unnamed_addr #0 {
  %1 = alloca [20000 x i32], align 16
  %2 = alloca i32, align 4
  %3 = alloca i32, align 4
  %4 = bitcast [20000 x i32]* %1 to i8*
  call void @llvm.lifetime.start.p0i8(i64 80000, i8* nonnull %4) #3
  %5 = bitcast i32* %2 to i8*
  call void @llvm.lifetime.start.p0i8(i64 4, i8* nonnull %5) #3
  %6 = bitcast i32* %3 to i8*
  call void @llvm.lifetime.start.p0i8(i64 4, i8* nonnull %6) #3
  %7 = call i32 (i8*, ...) @__isoc99_scanf(i8* getelementptr inbounds ([3 x i8], [3 x i8]* @.str, i64 0, i64 0), i32* nonnull %2)
  %8 = getelementptr inbounds [20000 x i32], [20000 x i32]* %1, i64 0, i64 0
  %9 = call i32 (i8*, ...) @__isoc99_scanf(i8* getelementptr inbounds ([3 x i8], [3 x i8]* @.str, i64 0, i64 0), i32* nonnull %8)
  %10 = load i32, i32* %2, align 4, !tbaa !5
  %11 = icmp sgt i32 %10, 1
  br i1 %11, label %20, label %12

12:                                               ; preds = %40, %0
  %13 = phi i32 [ %10, %0 ], [ %43, %40 ]
  %14 = phi i32 [ 0, %0 ], [ %41, %40 ]
  %15 = xor i32 %14, -1
  %16 = add i32 %13, %15
  %17 = icmp sgt i32 %16, 0
  br i1 %17, label %46, label %18

18:                                               ; preds = %12
  %19 = sext i32 %16 to i64
  br label %56

20:                                               ; preds = %0, %40
  %21 = phi i64 [ %42, %40 ], [ 1, %0 ]
  %22 = phi i32 [ %41, %40 ], [ 0, %0 ]
  %23 = call i32 (i8*, ...) @__isoc99_scanf(i8* getelementptr inbounds ([3 x i8], [3 x i8]* @.str, i64 0, i64 0), i32* nonnull %3)
  %24 = load i32, i32* %3, align 4, !tbaa !5
  br label %27

25:                                               ; preds = %27
  %26 = icmp eq i64 %32, %21
  br i1 %26, label %33, label %27, !llvm.loop !9

27:                                               ; preds = %20, %25
  %28 = phi i64 [ 0, %20 ], [ %32, %25 ]
  %29 = getelementptr inbounds [20000 x i32], [20000 x i32]* %1, i64 0, i64 %28
  %30 = load i32, i32* %29, align 4, !tbaa !5
  %31 = icmp eq i32 %24, %30
  %32 = add nuw nsw i64 %28, 1
  br i1 %31, label %38, label %25

33:                                               ; preds = %25
  %34 = trunc i64 %21 to i32
  %35 = sub nsw i32 %34, %22
  %36 = sext i32 %35 to i64
  %37 = getelementptr inbounds [20000 x i32], [20000 x i32]* %1, i64 0, i64 %36
  store i32 %24, i32* %37, align 4, !tbaa !5
  br label %40

38:                                               ; preds = %27
  %39 = add nsw i32 %22, 1
  br label %40

40:                                               ; preds = %33, %38
  %41 = phi i32 [ %22, %33 ], [ %39, %38 ]
  %42 = add nuw nsw i64 %21, 1
  %43 = load i32, i32* %2, align 4, !tbaa !5
  %44 = sext i32 %43 to i64
  %45 = icmp slt i64 %42, %44
  br i1 %45, label %20, label %12, !llvm.loop !11

46:                                               ; preds = %12, %46
  %47 = phi i64 [ %51, %46 ], [ 0, %12 ]
  %48 = getelementptr inbounds [20000 x i32], [20000 x i32]* %1, i64 0, i64 %47
  %49 = load i32, i32* %48, align 4, !tbaa !5
  %50 = call i32 (i8*, ...) @printf(i8* nonnull dereferenceable(1) getelementptr inbounds ([4 x i8], [4 x i8]* @.str.1, i64 0, i64 0), i32 %49)
  %51 = add nuw nsw i64 %47, 1
  %52 = load i32, i32* %2, align 4, !tbaa !5
  %53 = add i32 %52, %15
  %54 = sext i32 %53 to i64
  %55 = icmp slt i64 %51, %54
  br i1 %55, label %46, label %56, !llvm.loop !12

56:                                               ; preds = %46, %18
  %57 = phi i64 [ %19, %18 ], [ %54, %46 ]
  %58 = getelementptr inbounds [20000 x i32], [20000 x i32]* %1, i64 0, i64 %57
  %59 = load i32, i32* %58, align 4, !tbaa !5
  %60 = call i32 (i8*, ...) @printf(i8* nonnull dereferenceable(1) getelementptr inbounds ([3 x i8], [3 x i8]* @.str, i64 0, i64 0), i32 %59)
  call void @llvm.lifetime.end.p0i8(i64 4, i8* nonnull %6) #3
  call void @llvm.lifetime.end.p0i8(i64 4, i8* nonnull %5) #3
  call void @llvm.lifetime.end.p0i8(i64 80000, i8* nonnull %4) #3
  ret void
}

; Function Attrs: argmemonly mustprogress nofree nosync nounwind willreturn
declare void @llvm.lifetime.start.p0i8(i64 immarg, i8* nocapture) #1

; Function Attrs: nofree nounwind
declare noundef i32 @__isoc99_scanf(i8* nocapture noundef readonly, ...) local_unnamed_addr #2

; Function Attrs: nofree nounwind
declare noundef i32 @printf(i8* nocapture noundef readonly, ...) local_unnamed_addr #2

; Function Attrs: argmemonly mustprogress nofree nosync nounwind willreturn
declare void @llvm.lifetime.end.p0i8(i64 immarg, i8* nocapture) #1


!llvm.module.flags = !{!0, !1, !2, !3}
!llvm.ident = !{!4}

!0 = !{i32 1, !"wchar_size", i32 4}
!1 = !{i32 7, !"PIC Level", i32 2}
!2 = !{i32 7, !"PIE Level", i32 2}
!3 = !{i32 7, !"uwtable", i32 1}
!4 = !{!"clang version 13.0.0"}
!5 = !{!6, !6, i64 0}
!6 = !{!"int", !7, i64 0}
!7 = !{!"omnipotent char", !8, i64 0}
!8 = !{!"Simple C/C++ TBAA"}
!9 = distinct !{!9, !10}
!10 = !{!"llvm.loop.mustprogress"}
!11 = distinct !{!11, !10}
!12 = distinct !{!12, !10}
